; Function Attrs: mustprogress nofree norecurse nosync nounwind willreturn memory(read, inaccessiblemem: none) uwtable
define dso_local noundef nonnull ptr @_ZNK31cmGeneratorExpressionDAGChecker3TopEv(ptr noundef nonnull readonly align 8 dereferenceable(126) %0) local_unnamed_addr #6 align 2 {
  br label %2

2:                                                ; preds = %2, %1
  %.05 = phi ptr [ %0, %1 ], [ %.0, %2 ]
  %.0 = load ptr, ptr %.05, align 8
  %.not = icmp eq ptr %.0, null
  br i1 %.not, label %3, label %2, !llvm.loop !5

3:                                                ; preds = %2
  ret ptr %.05
}